Archive member included to satisfy reference by file (symbol)

../lib2/libc2.a(_addsub_df.o)
                              double.o (__adddf3)
../lib2/libc2.a(_ashldi3.o)   ../lib2/libc2.a(_addsub_df.o) (__ashldi3)
../lib2/libc2.a(_df_to_si.o)  double.o (__fixdfsi)
../lib2/libc2.a(_div_df.o)    double.o (__divdf3)
../lib2/libc2.a(_eq_df.o)     double.o (__eqdf2)
../lib2/libc2.a(_fpcmp_parts_df.o)
                              ../lib2/libc2.a(_eq_df.o) (__fpcmp_parts_d)
../lib2/libc2.a(_gt_df.o)     double.o (__gtdf2)
../lib2/libc2.a(_lshrdi3.o)   ../lib2/libc2.a(_addsub_df.o) (__lshrdi3)
../lib2/libc2.a(_lt_df.o)     double.o (__ltdf2)
../lib2/libc2.a(_mul_df.o)    double.o (__muldf3)
../lib2/libc2.a(_muldi3.o)    ../lib2/libc2.a(_mul_df.o) (__muldi3)
../lib2/libc2.a(_ne_df.o)     double.o (__nedf2)
../lib2/libc2.a(_pack_df.o)   ../lib2/libc2.a(_addsub_df.o) (__pack_d)
../lib2/libc2.a(_thenan_df.o)
                              ../lib2/libc2.a(_addsub_df.o) (__thenan_df)
../lib2/libc2.a(_unpack_df.o)
                              ../lib2/libc2.a(_addsub_df.o) (__unpack_d)
../lib2/libc2.a(exit.o)       ../lib/crtso.o (exit)
../lib2/libc2.a(fclose.o)     ../lib2/libc2.a(exit.o) (fclose)
../lib2/libc2.a(fflush.o)     ../lib2/libc2.a(fclose.o) (fflush)
../lib2/libc2.a(free.o)       ../lib2/libc2.a(fclose.o) (free)
../lib2/libc2.a(malloc.o)     ../lib2/libc2.a(free.o) (_Aldata)
../lib2/libc2.a(memcpy.o)     ../lib2/libc2.a(_addsub_df.o) (memcpy)
../lib2/libc2.a(printf.o)     double.o (printf)
../lib2/libc2.a(remove.o)     ../lib2/libc2.a(fclose.o) (remove)
../lib2/libc2.a(xfiles.o)     ../lib2/libc2.a(exit.o) (_Files)
../lib2/libc2.a(xgetmem.o)    ../lib2/libc2.a(malloc.o) (_Getmem)
../lib2/libc2.a(xprintf.o)    ../lib2/libc2.a(printf.o) (_Printf)
../lib2/libc2.a(xputfld.o)    ../lib2/libc2.a(xprintf.o) (_Putfld)
../lib2/libc2.a(xstate.o)     ../lib2/libc2.a(xprintf.o) (_Mbcurmax)
../lib2/libc2.a(_exit.o)      ../lib2/libc2.a(exit.o) (_exit)
../lib2/libc2.a(fwrite.o)     ../lib2/libc2.a(printf.o) (fwrite)
../lib2/libc2.a(memchr.o)     ../lib2/libc2.a(fwrite.o) (memchr)
../lib2/libc2.a(strchr.o)     ../lib2/libc2.a(xprintf.o) (strchr)
../lib2/libc2.a(strlen.o)     ../lib2/libc2.a(xputfld.o) (strlen)
../lib2/libc2.a(xctype.o)     ../lib2/libc2.a(xprintf.o) (_Ctype)
../lib2/libc2.a(xfwprep.o)    ../lib2/libc2.a(fwrite.o) (_Fwprep)
../lib2/libc2.a(xldtob.o)     ../lib2/libc2.a(xputfld.o) (_Ldtob)
../lib2/libc2.a(xldunsca.o)   ../lib2/libc2.a(xldtob.o) (_Ldunscale)
../lib2/libc2.a(xlitob.o)     ../lib2/libc2.a(xputfld.o) (_Litob)
../lib2/libc2.a(xmbtowc.o)    ../lib2/libc2.a(xprintf.o) (_Mbtowc)
../lib2/libc2.a(_si_to_df.o)  ../lib2/libc2.a(xldtob.o) (__floatsidf)
../lib2/libc2.a(ldiv.o)       ../lib2/libc2.a(xldtob.o) (ldiv)
../lib2/libc2.a(xdnorm.o)     ../lib2/libc2.a(xldunsca.o) (_Dnorm)
../lib2/libc2.a(xfloat.o)     ../lib2/libc2.a(xldtob.o) (_Ldbl)
../lib2/libc2.a(xgenld.o)     ../lib2/libc2.a(xldtob.o) (_Genld)
../lib2/libc2.a(_clzsi2.o)    ../lib2/libc2.a(_si_to_df.o) (__clzsi2)
../lib2/libc2.a(localeco.o)   ../lib2/libc2.a(xgenld.o) (_Locale)
../lib2/libc2.a(_clz.o)       ../lib2/libc2.a(_clzsi2.o) (__clz_tab)
../lib/libsys.a(divmodsi3.o)  ../lib2/libc2.a(xldtob.o) (__divsi3)
../lib/libsys.a(ldivmod.o)    ../lib/libsys.a(divmodsi3.o) (ldivmod)
../lib/libsys.a(close.o)      ../lib2/libc2.a(fclose.o) (close)
../lib/libsys.a(write.o)      ../lib2/libc2.a(fflush.o) (write)
../lib/libsys.a(brk.o)        ../lib2/libc2.a(xgetmem.o) (sbrk)
../lib/libsys.a(unlink.o)     ../lib2/libc2.a(remove.o) (unlink)
../lib/libsys.a(message.o)    ../lib/libsys.a(brk.o) (M)
../lib/libsys.a(call.o)       ../lib2/libc2.a(_exit.o) (callm1)
../lib/libsys.a(sendrec.o)    ../lib/libsys.a(call.o) (sendrec)

Allocating common symbols
Common symbol       size              file

errno               0x2               ../lib/libsys.a(call.o)
M                   0x18              ../lib/libsys.a(message.o)

Discarded input sections

 .comment       0x0000000000000000       0x12 double.o
 .comment       0x0000000000000000       0x12 ../lib2/libc2.a(exit.o)
 .comment       0x0000000000000000       0x12 ../lib2/libc2.a(fclose.o)
 .comment       0x0000000000000000       0x12 ../lib2/libc2.a(fflush.o)
 .comment       0x0000000000000000       0x12 ../lib2/libc2.a(free.o)
 .comment       0x0000000000000000       0x12 ../lib2/libc2.a(malloc.o)
 .comment       0x0000000000000000       0x12 ../lib2/libc2.a(memcpy.o)
 .comment       0x0000000000000000       0x12 ../lib2/libc2.a(printf.o)
 .comment       0x0000000000000000       0x12 ../lib2/libc2.a(remove.o)
 .comment       0x0000000000000000       0x12 ../lib2/libc2.a(xfiles.o)
 .comment       0x0000000000000000       0x12 ../lib2/libc2.a(xgetmem.o)
 .comment       0x0000000000000000       0x12 ../lib2/libc2.a(xprintf.o)
 .comment       0x0000000000000000       0x12 ../lib2/libc2.a(xputfld.o)
 .comment       0x0000000000000000       0x12 ../lib2/libc2.a(xstate.o)
 .comment       0x0000000000000000       0x12 ../lib2/libc2.a(_exit.o)
 .comment       0x0000000000000000       0x12 ../lib2/libc2.a(fwrite.o)
 .comment       0x0000000000000000       0x12 ../lib2/libc2.a(memchr.o)
 .comment       0x0000000000000000       0x12 ../lib2/libc2.a(strchr.o)
 .comment       0x0000000000000000       0x12 ../lib2/libc2.a(strlen.o)
 .comment       0x0000000000000000       0x12 ../lib2/libc2.a(xctype.o)
 .comment       0x0000000000000000       0x12 ../lib2/libc2.a(xfwprep.o)
 .comment       0x0000000000000000       0x12 ../lib2/libc2.a(xldtob.o)
 .comment       0x0000000000000000       0x12 ../lib2/libc2.a(xldunsca.o)
 .comment       0x0000000000000000       0x12 ../lib2/libc2.a(xlitob.o)
 .comment       0x0000000000000000       0x12 ../lib2/libc2.a(xmbtowc.o)
 .comment       0x0000000000000000       0x12 ../lib2/libc2.a(ldiv.o)
 .comment       0x0000000000000000       0x12 ../lib2/libc2.a(xdnorm.o)
 .comment       0x0000000000000000       0x12 ../lib2/libc2.a(xfloat.o)
 .comment       0x0000000000000000       0x12 ../lib2/libc2.a(xgenld.o)
 .comment       0x0000000000000000       0x12 ../lib2/libc2.a(localeco.o)
 .comment       0x0000000000000000       0x12 ../lib/libsys.a(close.o)
 .comment       0x0000000000000000       0x12 ../lib/libsys.a(write.o)
 .comment       0x0000000000000000       0x12 ../lib/libsys.a(brk.o)
 .comment       0x0000000000000000       0x12 ../lib/libsys.a(unlink.o)
 .comment       0x0000000000000000       0x12 ../lib/libsys.a(message.o)
 .comment       0x0000000000000000       0x12 ../lib/libsys.a(call.o)

Memory Configuration

Name             Origin             Length             Attributes
*default*        0x0000000000000000 0xffffffffffffffff

Linker script and memory map


.hdr            0x0000000000000000       0x20
                0x0000000000000000        0x4 LONG 0x4100301
                0x0000000000000004        0x4 LONG 0x20
                0x0000000000000008        0x4 LONG 0x535b (_begdata - _begtext)
                0x000000000000000c        0x4 LONG 0x839 (_begbss - _begdata)
                0x0000000000000010        0x4 LONG 0xb0 (_endbss - _begbss)
                0x0000000000000014        0x4 LONG 0x0 start
                0x0000000000000018        0x4 LONG 0x7c44 ((((_endbss - _begtext) + 0x2000) / 0x2) * 0x2)
                0x000000000000001c        0x4 LONG 0x0
                0x0000000000000020                _begintext = ALIGN (0x20)

.text           0x0000000000000000     0x5b94 load address 0x0000000000000020
                0x0000000000000000                _begtext = .
 *(.text)
 .text          0x0000000000000000       0x1e ../lib/crtso.o
                0x0000000000000000                start
 .text          0x000000000000001e      0x51e double.o
                0x000000000000001e                main
 .text          0x000000000000053c      0x5e1 ../lib2/libc2.a(_addsub_df.o)
                0x0000000000000a05                __adddf3
                0x0000000000000a8f                __subdf3
 .text          0x0000000000000b1d      0x17c ../lib2/libc2.a(_ashldi3.o)
                0x0000000000000b1d                __ashldi3
 .text          0x0000000000000c99       0x98 ../lib2/libc2.a(_df_to_si.o)
                0x0000000000000c99                __fixdfsi
 .text          0x0000000000000d31      0x341 ../lib2/libc2.a(_div_df.o)
                0x0000000000000d31                __divdf3
 .text          0x0000000000001072       0x6e ../lib2/libc2.a(_eq_df.o)
                0x0000000000001072                __eqdf2
 .text          0x00000000000010e0      0x11a ../lib2/libc2.a(_fpcmp_parts_df.o)
                0x00000000000010e0                __fpcmp_parts_d
 .text          0x00000000000011fa       0x6e ../lib2/libc2.a(_gt_df.o)
                0x00000000000011fa                __gtdf2
 .text          0x0000000000001268      0x189 ../lib2/libc2.a(_lshrdi3.o)
                0x0000000000001268                __lshrdi3
 .text          0x00000000000013f1       0x6e ../lib2/libc2.a(_lt_df.o)
                0x00000000000013f1                __ltdf2
 .text          0x000000000000145f      0x5a1 ../lib2/libc2.a(_mul_df.o)
                0x000000000000145f                __muldf3
 .text          0x0000000000001a00      0x117 ../lib2/libc2.a(_muldi3.o)
                0x0000000000001a00                __muldi3
 .text          0x0000000000001b17       0x6e ../lib2/libc2.a(_ne_df.o)
                0x0000000000001b17                __nedf2
 .text          0x0000000000001b85      0x486 ../lib2/libc2.a(_pack_df.o)
                0x0000000000001b85                __pack_d
 .text          0x000000000000200b        0x0 ../lib2/libc2.a(_thenan_df.o)
 .text          0x000000000000200b      0x16f ../lib2/libc2.a(_unpack_df.o)
                0x000000000000200b                __unpack_d
 .text          0x000000000000217a       0x82 ../lib2/libc2.a(exit.o)
                0x000000000000217a                exit
 .text          0x00000000000021fc      0x158 ../lib2/libc2.a(fclose.o)
                0x00000000000021fc                fclose
 .text          0x0000000000002354      0x134 ../lib2/libc2.a(fflush.o)
                0x0000000000002354                fflush
 .text          0x0000000000002488      0x159 ../lib2/libc2.a(free.o)
                0x0000000000002488                free
 .text          0x00000000000025e1      0x230 ../lib2/libc2.a(malloc.o)
                0x0000000000002720                malloc
 .text          0x0000000000002811       0x4a ../lib2/libc2.a(memcpy.o)
                0x0000000000002811                memcpy
 .text          0x000000000000285b       0x6a ../lib2/libc2.a(printf.o)
                0x000000000000288f                printf
 .text          0x00000000000028c5       0x1a ../lib2/libc2.a(remove.o)
                0x00000000000028c5                remove
 .text          0x00000000000028df        0x0 ../lib2/libc2.a(xfiles.o)
 .text          0x00000000000028df       0x42 ../lib2/libc2.a(xgetmem.o)
                0x00000000000028df                _Getmem
 .text          0x0000000000002921      0x651 ../lib2/libc2.a(xprintf.o)
                0x0000000000002921                _Printf
 .text          0x0000000000002f72      0x644 ../lib2/libc2.a(xputfld.o)
                0x0000000000002f72                _Putfld
 .text          0x00000000000035b6        0x0 ../lib2/libc2.a(xstate.o)
 .text          0x00000000000035b6       0x1d ../lib2/libc2.a(_exit.o)
                0x00000000000035b6                _exit
 .text          0x00000000000035d3      0x196 ../lib2/libc2.a(fwrite.o)
                0x00000000000035d3                fwrite
 .text          0x0000000000003769       0x4b ../lib2/libc2.a(memchr.o)
                0x0000000000003769                memchr
 .text          0x00000000000037b4       0x3f ../lib2/libc2.a(strchr.o)
                0x00000000000037b4                strchr
 .text          0x00000000000037f3       0x36 ../lib2/libc2.a(strlen.o)
                0x00000000000037f3                strlen
 .text          0x0000000000003829        0x0 ../lib2/libc2.a(xctype.o)
 .text          0x0000000000003829      0x118 ../lib2/libc2.a(xfwprep.o)
                0x0000000000003829                _Fwprep
 .text          0x0000000000003941      0x629 ../lib2/libc2.a(xldtob.o)
                0x0000000000003941                _Ldtob
 .text          0x0000000000003f6a       0xfd ../lib2/libc2.a(xldunsca.o)
                0x0000000000003f6a                _Ldunscale
 .text          0x0000000000004067      0x29b ../lib2/libc2.a(xlitob.o)
                0x0000000000004067                _Litob
 .text          0x0000000000004302      0x19c ../lib2/libc2.a(xmbtowc.o)
                0x0000000000004302                _Mbtowc
 .text          0x000000000000449e      0x121 ../lib2/libc2.a(_si_to_df.o)
                0x000000000000449e                __floatsidf
 .text          0x00000000000045bf      0x100 ../lib2/libc2.a(ldiv.o)
                0x00000000000045bf                ldiv
 .text          0x00000000000046bf      0x2de ../lib2/libc2.a(xdnorm.o)
                0x00000000000046bf                _Dnorm
 .text          0x000000000000499d        0x0 ../lib2/libc2.a(xfloat.o)
 .text          0x000000000000499d      0x647 ../lib2/libc2.a(xgenld.o)
                0x000000000000499d                _Genld
 .text          0x0000000000004fe4       0x84 ../lib2/libc2.a(_clzsi2.o)
                0x0000000000004fe4                __clzsi2
 .text          0x0000000000005068        0xe ../lib2/libc2.a(localeco.o)
                0x0000000000005068                localeconv
 .text          0x0000000000005076        0x0 ../lib2/libc2.a(_clz.o)
 .text          0x0000000000005076       0x74 ../lib/libsys.a(divmodsi3.o)
                0x0000000000005076                __divsi3
                0x0000000000005094                __modsi3
                0x00000000000050b0                __udivsi3
                0x00000000000050ce                __umodsi3
 .text          0x00000000000050ea       0xda ../lib/libsys.a(ldivmod.o)
                0x00000000000050ea                ldivmod
                0x0000000000005106                ludivmod
 .text          0x00000000000051c4       0x20 ../lib/libsys.a(close.o)
                0x00000000000051c4                close
 .text          0x00000000000051e4       0x24 ../lib/libsys.a(write.o)
                0x00000000000051e4                write
 .text          0x0000000000005208       0x53 ../lib/libsys.a(brk.o)
                0x0000000000005208                brk
                0x0000000000005239                sbrk
 .text          0x000000000000525b       0x1c ../lib/libsys.a(unlink.o)
                0x000000000000525b                unlink
 .text          0x0000000000005277        0x0 ../lib/libsys.a(message.o)
 .text          0x0000000000005277       0xc8 ../lib/libsys.a(call.o)
                0x0000000000005277                callx
                0x00000000000052a6                callm1
                0x00000000000052dd                len
                0x00000000000052f6                callm3
 .text          0x000000000000533f       0x1c ../lib/libsys.a(sendrec.o)
                0x000000000000533f                send
                0x0000000000005344                receive
                0x0000000000005349                send_rec
                0x0000000000005349                sendrec
                0x000000000000535b                _begdata = .
 *(.data)
 .data          0x000000000000535b        0x4 ../lib/crtso.o
                0x000000000000535b                brksize
                0x000000000000535d                environ
 .data          0x000000000000535f        0x0 double.o
 .data          0x000000000000535f        0x0 ../lib2/libc2.a(_addsub_df.o)
 .data          0x000000000000535f        0x0 ../lib2/libc2.a(_ashldi3.o)
 .data          0x000000000000535f        0x0 ../lib2/libc2.a(_df_to_si.o)
 .data          0x000000000000535f        0x0 ../lib2/libc2.a(_div_df.o)
 .data          0x000000000000535f        0x0 ../lib2/libc2.a(_eq_df.o)
 .data          0x000000000000535f        0x0 ../lib2/libc2.a(_fpcmp_parts_df.o)
 .data          0x000000000000535f        0x0 ../lib2/libc2.a(_gt_df.o)
 .data          0x000000000000535f        0x0 ../lib2/libc2.a(_lshrdi3.o)
 .data          0x000000000000535f        0x0 ../lib2/libc2.a(_lt_df.o)
 .data          0x000000000000535f        0x0 ../lib2/libc2.a(_mul_df.o)
 .data          0x000000000000535f        0x0 ../lib2/libc2.a(_muldi3.o)
 .data          0x000000000000535f        0x0 ../lib2/libc2.a(_ne_df.o)
 .data          0x000000000000535f        0x0 ../lib2/libc2.a(_pack_df.o)
 .data          0x000000000000535f        0x0 ../lib2/libc2.a(_thenan_df.o)
 .data          0x000000000000535f        0x0 ../lib2/libc2.a(_unpack_df.o)
 *fill*         0x000000000000535f        0x1 
 .data          0x0000000000005360        0x2 ../lib2/libc2.a(exit.o)
                0x0000000000005360                _Atcount
 .data          0x0000000000005362        0x0 ../lib2/libc2.a(fclose.o)
 .data          0x0000000000005362        0x0 ../lib2/libc2.a(fflush.o)
 .data          0x0000000000005362        0x0 ../lib2/libc2.a(free.o)
 .data          0x0000000000005362        0x0 ../lib2/libc2.a(malloc.o)
 .data          0x0000000000005362        0x0 ../lib2/libc2.a(memcpy.o)
 .data          0x0000000000005362        0x0 ../lib2/libc2.a(printf.o)
 .data          0x0000000000005362        0x0 ../lib2/libc2.a(remove.o)
 .data          0x0000000000005362       0x62 ../lib2/libc2.a(xfiles.o)
                0x00000000000053a4                _Files
 .data          0x00000000000053c4        0x0 ../lib2/libc2.a(xgetmem.o)
 .data          0x00000000000053c4       0x42 ../lib2/libc2.a(xprintf.o)
 .data          0x0000000000005406        0x0 ../lib2/libc2.a(xputfld.o)
 .data          0x0000000000005406       0x62 ../lib2/libc2.a(xstate.o)
                0x0000000000005406                _Mbcurmax
                0x0000000000005408                _Costate
                0x0000000000005428                _Mbstate
                0x0000000000005448                _Wcstate
 .data          0x0000000000005468        0x0 ../lib2/libc2.a(_exit.o)
 .data          0x0000000000005468        0x0 ../lib2/libc2.a(fwrite.o)
 .data          0x0000000000005468        0x0 ../lib2/libc2.a(memchr.o)
 .data          0x0000000000005468        0x0 ../lib2/libc2.a(strchr.o)
 .data          0x0000000000005468        0x0 ../lib2/libc2.a(strlen.o)
 .data          0x0000000000005468        0x2 ../lib2/libc2.a(xctype.o)
                0x0000000000005468                _Ctype
 .data          0x000000000000546a        0x0 ../lib2/libc2.a(xfwprep.o)
 .data          0x000000000000546a        0x0 ../lib2/libc2.a(xldtob.o)
 .data          0x000000000000546a        0x0 ../lib2/libc2.a(xldunsca.o)
 .data          0x000000000000546a       0x22 ../lib2/libc2.a(xlitob.o)
 .data          0x000000000000548c        0x0 ../lib2/libc2.a(xmbtowc.o)
 .data          0x000000000000548c        0x0 ../lib2/libc2.a(_si_to_df.o)
 .data          0x000000000000548c        0x0 ../lib2/libc2.a(ldiv.o)
 .data          0x000000000000548c        0x0 ../lib2/libc2.a(xdnorm.o)
 .data          0x000000000000548c       0x7e ../lib2/libc2.a(xfloat.o)
                0x000000000000548c                _Dbl
                0x00000000000054b6                _Flt
                0x00000000000054e0                _Ldbl
 .data          0x000000000000550a        0x0 ../lib2/libc2.a(xgenld.o)
 .data          0x000000000000550a        0x0 ../lib2/libc2.a(_clzsi2.o)
 .data          0x000000000000550a       0x1c ../lib2/libc2.a(localeco.o)
                0x000000000000550a                _Locale
 .data          0x0000000000005526        0x0 ../lib2/libc2.a(_clz.o)
 .data          0x0000000000005526        0x0 ../lib/libsys.a(divmodsi3.o)
 .data          0x0000000000005526        0x0 ../lib/libsys.a(ldivmod.o)
 .data          0x0000000000005526        0x0 ../lib/libsys.a(close.o)
 .data          0x0000000000005526        0x0 ../lib/libsys.a(write.o)
 .data          0x0000000000005526        0x0 ../lib/libsys.a(brk.o)
 .data          0x0000000000005526        0x0 ../lib/libsys.a(unlink.o)
 .data          0x0000000000005526        0x0 ../lib/libsys.a(message.o)
 .data          0x0000000000005526        0x0 ../lib/libsys.a(call.o)
 .data          0x0000000000005526        0x0 ../lib/libsys.a(sendrec.o)
 *(.rodata*)
 .rodata        0x0000000000005526       0x46 double.o
 .rodata        0x000000000000556c        0xc ../lib2/libc2.a(_thenan_df.o)
                0x000000000000556c                __thenan_df
 .rodata        0x0000000000005578       0x16 ../lib2/libc2.a(xprintf.o)
 *fill*         0x000000000000558e        0x2 
 .rodata        0x0000000000005590       0xa8 ../lib2/libc2.a(xputfld.o)
 .rodata        0x0000000000005638      0x202 ../lib2/libc2.a(xstate.o)
 .rodata        0x000000000000583a      0x202 ../lib2/libc2.a(xctype.o)
 .rodata        0x0000000000005a3c       0x50 ../lib2/libc2.a(xldtob.o)
 .rodata        0x0000000000005a8c        0x4 ../lib2/libc2.a(xmbtowc.o)
 .rodata        0x0000000000005a90        0x2 ../lib2/libc2.a(xgenld.o)
 .rodata        0x0000000000005a92        0x2 ../lib2/libc2.a(localeco.o)
 .rodata        0x0000000000005a94      0x100 ../lib2/libc2.a(_clz.o)
                0x0000000000005a94                __clz_tab
                0x0000000000005b94                _begbss = .

.bss            0x0000000000005b94       0xb0 load address 0x0000000000005bb4
 *(.bss)
 .bss           0x0000000000005b94        0x0 ../lib/crtso.o
 .bss           0x0000000000005b94        0x0 double.o
 .bss           0x0000000000005b94        0x0 ../lib2/libc2.a(_addsub_df.o)
 .bss           0x0000000000005b94        0x0 ../lib2/libc2.a(_ashldi3.o)
 .bss           0x0000000000005b94        0x0 ../lib2/libc2.a(_df_to_si.o)
 .bss           0x0000000000005b94        0x0 ../lib2/libc2.a(_div_df.o)
 .bss           0x0000000000005b94        0x0 ../lib2/libc2.a(_eq_df.o)
 .bss           0x0000000000005b94        0x0 ../lib2/libc2.a(_fpcmp_parts_df.o)
 .bss           0x0000000000005b94        0x0 ../lib2/libc2.a(_gt_df.o)
 .bss           0x0000000000005b94        0x0 ../lib2/libc2.a(_lshrdi3.o)
 .bss           0x0000000000005b94        0x0 ../lib2/libc2.a(_lt_df.o)
 .bss           0x0000000000005b94        0x0 ../lib2/libc2.a(_mul_df.o)
 .bss           0x0000000000005b94        0x0 ../lib2/libc2.a(_muldi3.o)
 .bss           0x0000000000005b94        0x0 ../lib2/libc2.a(_ne_df.o)
 .bss           0x0000000000005b94        0x0 ../lib2/libc2.a(_pack_df.o)
 .bss           0x0000000000005b94        0x0 ../lib2/libc2.a(_thenan_df.o)
 .bss           0x0000000000005b94        0x0 ../lib2/libc2.a(_unpack_df.o)
 .bss           0x0000000000005b94       0x40 ../lib2/libc2.a(exit.o)
                0x0000000000005b94                _Atfuns
 .bss           0x0000000000005bd4        0x0 ../lib2/libc2.a(fclose.o)
 .bss           0x0000000000005bd4        0x0 ../lib2/libc2.a(fflush.o)
 .bss           0x0000000000005bd4        0x0 ../lib2/libc2.a(free.o)
 .bss           0x0000000000005bd4        0x4 ../lib2/libc2.a(malloc.o)
                0x0000000000005bd4                _Aldata
 .bss           0x0000000000005bd8        0x0 ../lib2/libc2.a(memcpy.o)
 .bss           0x0000000000005bd8        0x0 ../lib2/libc2.a(printf.o)
 .bss           0x0000000000005bd8        0x0 ../lib2/libc2.a(remove.o)
 .bss           0x0000000000005bd8       0x50 ../lib2/libc2.a(xfiles.o)
 .bss           0x0000000000005c28        0x0 ../lib2/libc2.a(xgetmem.o)
 .bss           0x0000000000005c28        0x0 ../lib2/libc2.a(xprintf.o)
 .bss           0x0000000000005c28        0x0 ../lib2/libc2.a(xputfld.o)
 .bss           0x0000000000005c28        0x0 ../lib2/libc2.a(xstate.o)
 .bss           0x0000000000005c28        0x0 ../lib2/libc2.a(_exit.o)
 .bss           0x0000000000005c28        0x0 ../lib2/libc2.a(fwrite.o)
 .bss           0x0000000000005c28        0x0 ../lib2/libc2.a(memchr.o)
 .bss           0x0000000000005c28        0x0 ../lib2/libc2.a(strchr.o)
 .bss           0x0000000000005c28        0x0 ../lib2/libc2.a(strlen.o)
 .bss           0x0000000000005c28        0x0 ../lib2/libc2.a(xctype.o)
 .bss           0x0000000000005c28        0x0 ../lib2/libc2.a(xfwprep.o)
 .bss           0x0000000000005c28        0x0 ../lib2/libc2.a(xldtob.o)
 .bss           0x0000000000005c28        0x0 ../lib2/libc2.a(xldunsca.o)
 .bss           0x0000000000005c28        0x0 ../lib2/libc2.a(xlitob.o)
 .bss           0x0000000000005c28        0x0 ../lib2/libc2.a(xmbtowc.o)
 .bss           0x0000000000005c28        0x0 ../lib2/libc2.a(_si_to_df.o)
 .bss           0x0000000000005c28        0x0 ../lib2/libc2.a(ldiv.o)
 .bss           0x0000000000005c28        0x0 ../lib2/libc2.a(xdnorm.o)
 .bss           0x0000000000005c28        0x0 ../lib2/libc2.a(xfloat.o)
 .bss           0x0000000000005c28        0x0 ../lib2/libc2.a(xgenld.o)
 .bss           0x0000000000005c28        0x0 ../lib2/libc2.a(_clzsi2.o)
 .bss           0x0000000000005c28        0x1 ../lib2/libc2.a(localeco.o)
 .bss           0x0000000000005c29        0x0 ../lib2/libc2.a(_clz.o)
 .bss           0x0000000000005c29        0x0 ../lib/libsys.a(divmodsi3.o)
 .bss           0x0000000000005c29        0x0 ../lib/libsys.a(ldivmod.o)
 .bss           0x0000000000005c29        0x0 ../lib/libsys.a(close.o)
 .bss           0x0000000000005c29        0x0 ../lib/libsys.a(write.o)
 .bss           0x0000000000005c29        0x0 ../lib/libsys.a(brk.o)
 .bss           0x0000000000005c29        0x0 ../lib/libsys.a(unlink.o)
 .bss           0x0000000000005c29        0x0 ../lib/libsys.a(message.o)
 .bss           0x0000000000005c29        0x0 ../lib/libsys.a(call.o)
 .bss           0x0000000000005c29        0x0 ../lib/libsys.a(sendrec.o)
 *(COMMON)
 *fill*         0x0000000000005c29        0x1 
 COMMON         0x0000000000005c2a       0x18 ../lib/libsys.a(message.o)
                0x0000000000005c2a                M
 COMMON         0x0000000000005c42        0x2 ../lib/libsys.a(call.o)
                0x0000000000005c42                errno
                0x0000000000005c44                . = ALIGN (0x2)
                0x0000000000005c44                _endbss = .

/DISCARD/
 *(.comment)
                0x0000000000000001                ASSERT ((. <= 0xdff8), Error: too large for a .out file.)
LOAD ../lib/crtso.o
LOAD double.o
LOAD ../lib2/libc2.a
LOAD ../lib/libsys.a
OUTPUT(double.out binary)
