Archive member included to satisfy reference by file (symbol)

../lib/libsys.a(exit.o)       ../lib/crtso.o (exit)
../lib/libsys.a(call.o)       ../lib/libsys.a(exit.o) (callm1)
../lib/libsys.a(prints.o)     clr.o (prints)
../lib/libsys.a(sendrec.o)    ../lib/libsys.a(call.o) (sendrec)
../lib/libsys.a(write.o)      ../lib/libsys.a(prints.o) (write)
../lib/libsys.a(message.o)    ../lib/libsys.a(call.o) (M)

Allocating common symbols
Common symbol       size              file

errno               0x2               ../lib/libsys.a(call.o)
Bufp                0x2               ../lib/libsys.a(prints.o)
Buf                 0x80              ../lib/libsys.a(prints.o)
M                   0x18              ../lib/libsys.a(message.o)

Discarded input sections

 .comment       0x0000000000000000       0x12 clr.o
 .comment       0x0000000000000000       0x12 ../lib/libsys.a(exit.o)
 .comment       0x0000000000000000       0x12 ../lib/libsys.a(call.o)
 .comment       0x0000000000000000       0x12 ../lib/libsys.a(prints.o)
 .comment       0x0000000000000000       0x12 ../lib/libsys.a(write.o)
 .comment       0x0000000000000000       0x12 ../lib/libsys.a(message.o)

Memory Configuration

Name             Origin             Length             Attributes
*default*        0x0000000000000000 0xffffffffffffffff

Linker script and memory map


.hdr            0x0000000000000000       0x20
                0x0000000000000000        0x4 LONG 0x4200301
                0x0000000000000004        0x4 LONG 0x20
                0x0000000000000008        0x4 LONG 0x290 SIZEOF (.text)
                0x000000000000000c        0x4 LONG 0xb SIZEOF (.data)
                0x0000000000000010        0x4 LONG 0x9c SIZEOF (.bss)
                0x0000000000000014        0x4 LONG 0x0 start
                0x0000000000000018        0x4 LONG 0x20a6 ((((SIZEOF (.data) + SIZEOF (.bss)) + 0x2000) / 0x2) * 0x2)
                0x000000000000001c        0x4 LONG 0x0
                0x0000000000000020                _begintext = ALIGN (0x20)

.text           0x0000000000000000      0x290 load address 0x0000000000000020
 *(.text)
 .text          0x0000000000000000       0x1e ../lib/crtso.o
                0x0000000000000000                start
 .text          0x000000000000001e       0x12 clr.o
                0x000000000000001e                main
 .text          0x0000000000000030       0x1d ../lib/libsys.a(exit.o)
                0x0000000000000030                exit
 .text          0x000000000000004d       0xc8 ../lib/libsys.a(call.o)
                0x000000000000004d                callx
                0x000000000000007c                callm1
                0x00000000000000b3                len
                0x00000000000000cc                callm3
 .text          0x0000000000000115      0x139 ../lib/libsys.a(prints.o)
                0x000000000000012e                prints
 .text          0x000000000000024e       0x1c ../lib/libsys.a(sendrec.o)
                0x000000000000024e                send
                0x0000000000000253                receive
                0x0000000000000258                send_rec
                0x0000000000000258                sendrec
 .text          0x000000000000026a       0x24 ../lib/libsys.a(write.o)
                0x000000000000026a                write
 .text          0x000000000000028e        0x0 ../lib/libsys.a(message.o)
                0x0000000000000290                . = ALIGN (0x10)
 *fill*         0x000000000000028e        0x2 
                0x0000000000000001                ASSERT ((. <= 0xfff8), Error: text too large for a .sep file.)
                0x00000000000002b0                _begindata = (_begintext + .)

.data           0x0000000000000000        0xb load address 0x00000000000002b0
 *(.data)
 .data          0x0000000000000000        0x4 ../lib/crtso.o
                0x0000000000000000                brksize
                0x0000000000000002                environ
 .data          0x0000000000000004        0x0 clr.o
 .data          0x0000000000000004        0x0 ../lib/libsys.a(exit.o)
 .data          0x0000000000000004        0x0 ../lib/libsys.a(call.o)
 .data          0x0000000000000004        0x0 ../lib/libsys.a(prints.o)
 .data          0x0000000000000004        0x0 ../lib/libsys.a(sendrec.o)
 .data          0x0000000000000004        0x0 ../lib/libsys.a(write.o)
 .data          0x0000000000000004        0x0 ../lib/libsys.a(message.o)
 *(.rodata*)
 .rodata.str1.1
                0x0000000000000004        0x7 clr.o
                0x000000000000000b                _begbss = .

.bss            0x000000000000000c       0x9c load address 0x00000000000002bc
 *(.bss)
 .bss           0x000000000000000c        0x0 ../lib/crtso.o
 .bss           0x000000000000000c        0x0 clr.o
 .bss           0x000000000000000c        0x0 ../lib/libsys.a(exit.o)
 .bss           0x000000000000000c        0x0 ../lib/libsys.a(call.o)
 .bss           0x000000000000000c        0x0 ../lib/libsys.a(prints.o)
 .bss           0x000000000000000c        0x0 ../lib/libsys.a(sendrec.o)
 .bss           0x000000000000000c        0x0 ../lib/libsys.a(write.o)
 .bss           0x000000000000000c        0x0 ../lib/libsys.a(message.o)
 *(COMMON)
 COMMON         0x000000000000000c        0x2 ../lib/libsys.a(call.o)
                0x000000000000000c                errno
 COMMON         0x000000000000000e       0x82 ../lib/libsys.a(prints.o)
                0x000000000000000e                Bufp
                0x0000000000000010                Buf
 COMMON         0x0000000000000090       0x18 ../lib/libsys.a(message.o)
                0x0000000000000090                M
                0x00000000000000a8                . = ALIGN (0x2)
                0x00000000000000a8                _endbss = .

/DISCARD/
 *(.comment)
                0x0000000000000001                ASSERT ((. <= 0xdff8), Error: data too large for a .sep file.)
LOAD ../lib/crtso.o
LOAD clr.o
LOAD ../lib/libsys.a
OUTPUT(clr.sep binary)
