Archive member included to satisfy reference by file (symbol)

../lib/libsys.a(close.o)      cp.o (close)
../lib/libsys.a(read.o)       cp.o (read)
../lib/libsys.a(stat.o)       cp.o (stat)
../lib/libsys.a(creat.o)      cp.o (creat)
../lib/libsys.a(exit.o)       ../lib/crtso.o (exit)
../lib/libsys.a(open.o)       cp.o (open)
../lib/libsys.a(sync.o)       cp.o (sync)
../lib/libsys.a(write.o)      cp.o (write)
../lib/libsys.a(fstat.o)      cp.o (fstat)
../lib/libsys.a(call.o)       ../lib/libsys.a(close.o) (callm1)
../lib/libsys.a(stderr.o)     cp.o (std_err)
../lib/libsys.a(perror.o)     cp.o (perror)
../lib/libsys.a(sendrec.o)    ../lib/libsys.a(call.o) (sendrec)
../lib/libsys.a(message.o)    ../lib/libsys.a(call.o) (M)

Allocating common symbols
Common symbol       size              file

errno               0x2               ../lib/libsys.a(call.o)
cpbuf               0x4000            cp.o
M                   0x18              ../lib/libsys.a(message.o)
isfloppy            0x2               cp.o

Discarded input sections

 .comment       0x0000000000000000       0x12 cp.o
 .comment       0x0000000000000000       0x12 ../lib/libsys.a(close.o)
 .comment       0x0000000000000000       0x12 ../lib/libsys.a(read.o)
 .comment       0x0000000000000000       0x12 ../lib/libsys.a(stat.o)
 .comment       0x0000000000000000       0x12 ../lib/libsys.a(creat.o)
 .comment       0x0000000000000000       0x12 ../lib/libsys.a(exit.o)
 .comment       0x0000000000000000       0x12 ../lib/libsys.a(open.o)
 .comment       0x0000000000000000       0x12 ../lib/libsys.a(sync.o)
 .comment       0x0000000000000000       0x12 ../lib/libsys.a(write.o)
 .comment       0x0000000000000000       0x12 ../lib/libsys.a(fstat.o)
 .comment       0x0000000000000000       0x12 ../lib/libsys.a(call.o)
 .comment       0x0000000000000000       0x12 ../lib/libsys.a(stderr.o)
 .comment       0x0000000000000000       0x12 ../lib/libsys.a(perror.o)
 .comment       0x0000000000000000       0x12 ../lib/libsys.a(message.o)

Memory Configuration

Name             Origin             Length             Attributes
*default*        0x0000000000000000 0xffffffffffffffff

Linker script and memory map


.hdr            0x0000000000000000       0x20
                0x0000000000000000        0x4 LONG 0x4100301
                0x0000000000000004        0x4 LONG 0x20
                0x0000000000000008        0x4 LONG 0x687 (_begdata - _begtext)
                0x000000000000000c        0x4 LONG 0x338 (_begbss - _begdata)
                0x0000000000000010        0x4 LONG 0x401d (_endbss - _begbss)
                0x0000000000000014        0x4 LONG 0x0 start
                0x0000000000000018        0x4 LONG 0x69dc ((((_endbss - _begtext) + 0x2000) / 0x2) * 0x2)
                0x000000000000001c        0x4 LONG 0x0
                0x0000000000000020                _begintext = ALIGN (0x20)

.text           0x0000000000000000      0x9bf load address 0x0000000000000020
                0x0000000000000000                _begtext = .
 *(.text)
 .text          0x0000000000000000       0x1e ../lib/crtso.o
                0x0000000000000000                start
 .text          0x000000000000001e      0x3c4 cp.o
                0x000000000000001e                copyfile
                0x0000000000000097                usage
                0x00000000000000a9                equal
                0x00000000000000e6                match
                0x000000000000010e                stderr3
                0x0000000000000131                cp_to_dir
                0x0000000000000267                main
 .text          0x00000000000003e2       0x20 ../lib/libsys.a(close.o)
                0x00000000000003e2                close
 .text          0x0000000000000402       0x24 ../lib/libsys.a(read.o)
                0x0000000000000402                read
 .text          0x0000000000000426       0x29 ../lib/libsys.a(stat.o)
                0x0000000000000426                stat
 .text          0x000000000000044f       0x1b ../lib/libsys.a(creat.o)
                0x000000000000044f                creat
 .text          0x000000000000046a       0x1d ../lib/libsys.a(exit.o)
                0x000000000000046a                exit
 .text          0x0000000000000487       0x1b ../lib/libsys.a(open.o)
                0x0000000000000487                open
 .text          0x00000000000004a2       0x18 ../lib/libsys.a(sync.o)
                0x00000000000004a2                sync
 .text          0x00000000000004ba       0x24 ../lib/libsys.a(write.o)
                0x00000000000004ba                write
 .text          0x00000000000004de       0x22 ../lib/libsys.a(fstat.o)
                0x00000000000004de                fstat
 .text          0x0000000000000500       0xc8 ../lib/libsys.a(call.o)
                0x0000000000000500                callx
                0x000000000000052f                callm1
                0x0000000000000566                len
                0x000000000000057f                callm3
 .text          0x00000000000005c8       0x27 ../lib/libsys.a(stderr.o)
                0x00000000000005c8                std_err
 .text          0x00000000000005ef       0x7c ../lib/libsys.a(perror.o)
                0x00000000000005ef                perror
 .text          0x000000000000066b       0x1c ../lib/libsys.a(sendrec.o)
                0x000000000000066b                send
                0x0000000000000670                receive
                0x0000000000000675                send_rec
                0x0000000000000675                sendrec
 .text          0x0000000000000687        0x0 ../lib/libsys.a(message.o)
                0x0000000000000687                _begdata = .
 *(.data)
 .data          0x0000000000000687        0x4 ../lib/crtso.o
                0x0000000000000687                brksize
                0x0000000000000689                environ
 .data          0x000000000000068b        0x0 cp.o
 .data          0x000000000000068b        0x0 ../lib/libsys.a(close.o)
 .data          0x000000000000068b        0x0 ../lib/libsys.a(read.o)
 .data          0x000000000000068b        0x0 ../lib/libsys.a(stat.o)
 .data          0x000000000000068b        0x0 ../lib/libsys.a(creat.o)
 .data          0x000000000000068b        0x0 ../lib/libsys.a(exit.o)
 .data          0x000000000000068b        0x0 ../lib/libsys.a(open.o)
 .data          0x000000000000068b        0x0 ../lib/libsys.a(sync.o)
 .data          0x000000000000068b        0x0 ../lib/libsys.a(write.o)
 .data          0x000000000000068b        0x0 ../lib/libsys.a(fstat.o)
 .data          0x000000000000068b        0x0 ../lib/libsys.a(call.o)
 .data          0x000000000000068b        0x0 ../lib/libsys.a(stderr.o)
 *fill*         0x000000000000068b        0x1 
 .data          0x000000000000068c       0x46 ../lib/libsys.a(perror.o)
                0x000000000000068c                error_message
 .data          0x00000000000006d2        0x0 ../lib/libsys.a(sendrec.o)
 .data          0x00000000000006d2        0x0 ../lib/libsys.a(message.o)
 *(.rodata*)
 .rodata.str1.1
                0x00000000000006d2       0x90 cp.o
 .rodata.str1.1
                0x0000000000000762      0x25d ../lib/libsys.a(perror.o)
                0x00000000000009bf                _begbss = .

.bss            0x00000000000009c0     0x401c load address 0x00000000000009e0
 *(.bss)
 .bss           0x00000000000009c0        0x0 ../lib/crtso.o
 .bss           0x00000000000009c0        0x0 cp.o
 .bss           0x00000000000009c0        0x0 ../lib/libsys.a(close.o)
 .bss           0x00000000000009c0        0x0 ../lib/libsys.a(read.o)
 .bss           0x00000000000009c0        0x0 ../lib/libsys.a(stat.o)
 .bss           0x00000000000009c0        0x0 ../lib/libsys.a(creat.o)
 .bss           0x00000000000009c0        0x0 ../lib/libsys.a(exit.o)
 .bss           0x00000000000009c0        0x0 ../lib/libsys.a(open.o)
 .bss           0x00000000000009c0        0x0 ../lib/libsys.a(sync.o)
 .bss           0x00000000000009c0        0x0 ../lib/libsys.a(write.o)
 .bss           0x00000000000009c0        0x0 ../lib/libsys.a(fstat.o)
 .bss           0x00000000000009c0        0x0 ../lib/libsys.a(call.o)
 .bss           0x00000000000009c0        0x0 ../lib/libsys.a(stderr.o)
 .bss           0x00000000000009c0        0x0 ../lib/libsys.a(perror.o)
 .bss           0x00000000000009c0        0x0 ../lib/libsys.a(sendrec.o)
 .bss           0x00000000000009c0        0x0 ../lib/libsys.a(message.o)
 *(COMMON)
 COMMON         0x00000000000009c0     0x4002 cp.o
                0x00000000000009c0                cpbuf
                0x00000000000049c0                isfloppy
 COMMON         0x00000000000049c2        0x2 ../lib/libsys.a(call.o)
                0x00000000000049c2                errno
 COMMON         0x00000000000049c4       0x18 ../lib/libsys.a(message.o)
                0x00000000000049c4                M
                0x00000000000049dc                . = ALIGN (0x2)
                0x00000000000049dc                _endbss = .

/DISCARD/
 *(.comment)
                0x0000000000000001                ASSERT ((. <= 0xdff8), Error: too large for a .out file.)
LOAD ../lib/crtso.o
LOAD cp.o
LOAD ../lib/libsys.a
OUTPUT(cp.out binary)
