Archive member included to satisfy reference by file (symbol)

../lib/libsys.a(exit.o)       ../lib/crtso.o (exit)
../lib/libsys.a(write.o)      echo.o (write)
../lib/libsys.a(call.o)       ../lib/libsys.a(exit.o) (callm1)
../lib/libsys.a(sendrec.o)    ../lib/libsys.a(call.o) (sendrec)
../lib/libsys.a(message.o)    ../lib/libsys.a(call.o) (M)

Allocating common symbols
Common symbol       size              file

errno               0x2               ../lib/libsys.a(call.o)
count               0x2               echo.o
buf                 0x800             echo.o
M                   0x18              ../lib/libsys.a(message.o)

Discarded input sections

 .comment       0x0000000000000000       0x12 echo.o
 .comment       0x0000000000000000       0x12 ../lib/libsys.a(exit.o)
 .comment       0x0000000000000000       0x12 ../lib/libsys.a(write.o)
 .comment       0x0000000000000000       0x12 ../lib/libsys.a(call.o)
 .comment       0x0000000000000000       0x12 ../lib/libsys.a(message.o)

Memory Configuration

Name             Origin             Length             Attributes
*default*        0x0000000000000000 0xffffffffffffffff

Linker script and memory map


.hdr            0x0000000000000000       0x20
                0x0000000000000000        0x4 LONG 0x4200301
                0x0000000000000004        0x4 LONG 0x20
                0x0000000000000008        0x4 LONG 0x260 SIZEOF (.text)
                0x000000000000000c        0x4 LONG 0x8 SIZEOF (.data)
                0x0000000000000010        0x4 LONG 0x81c SIZEOF (.bss)
                0x0000000000000014        0x4 LONG 0x0 start
                0x0000000000000018        0x4 LONG 0x1c24 ((SIZEOF (.data) + SIZEOF (.bss)) + 0x1400)
                0x000000000000001c        0x4 LONG 0x0
                0x0000000000000020                _begintext = ALIGN (0x20)

.text           0x0000000000000000      0x260 load address 0x0000000000000020
 *(.text)
 .text          0x0000000000000000       0x1e ../lib/crtso.o
                0x0000000000000000                start
 .text          0x000000000000001e      0x11a echo.o
                0x000000000000001e                collect
                0x0000000000000095                main
 .text          0x0000000000000138       0x1d ../lib/libsys.a(exit.o)
                0x0000000000000138                exit
 .text          0x0000000000000155       0x24 ../lib/libsys.a(write.o)
                0x0000000000000155                write
 .text          0x0000000000000179       0xc8 ../lib/libsys.a(call.o)
                0x0000000000000179                callx
                0x00000000000001a8                callm1
                0x00000000000001df                len
                0x00000000000001f8                callm3
 .text          0x0000000000000241       0x1c ../lib/libsys.a(sendrec.o)
                0x0000000000000241                send
                0x0000000000000246                receive
                0x000000000000024b                send_rec
                0x000000000000024b                sendrec
 .text          0x000000000000025d        0x0 ../lib/libsys.a(message.o)
                0x0000000000000260                . = ALIGN (0x10)
 *fill*         0x000000000000025d        0x3 
                0x0000000000000001                ASSERT ((. <= 0xfff8), Error: text too large for a .sep file.)
                0x0000000000000280                _begindata = (_begintext + .)

.data           0x0000000000000000        0x8 load address 0x0000000000000280
 *(.data)
 .data          0x0000000000000000        0x4 ../lib/crtso.o
                0x0000000000000000                brksize
                0x0000000000000002                environ
 .data          0x0000000000000004        0x0 echo.o
 .data          0x0000000000000004        0x0 ../lib/libsys.a(exit.o)
 .data          0x0000000000000004        0x0 ../lib/libsys.a(write.o)
 .data          0x0000000000000004        0x0 ../lib/libsys.a(call.o)
 .data          0x0000000000000004        0x0 ../lib/libsys.a(sendrec.o)
 .data          0x0000000000000004        0x0 ../lib/libsys.a(message.o)
 *(.rodata*)
 .rodata.str1.1
                0x0000000000000004        0x4 echo.o
                0x0000000000000008                _begbss = .

.bss            0x0000000000000008      0x81c load address 0x0000000000000288
 *(.bss)
 .bss           0x0000000000000008        0x0 ../lib/crtso.o
 .bss           0x0000000000000008        0x0 echo.o
 .bss           0x0000000000000008        0x0 ../lib/libsys.a(exit.o)
 .bss           0x0000000000000008        0x0 ../lib/libsys.a(write.o)
 .bss           0x0000000000000008        0x0 ../lib/libsys.a(call.o)
 .bss           0x0000000000000008        0x0 ../lib/libsys.a(sendrec.o)
 .bss           0x0000000000000008        0x0 ../lib/libsys.a(message.o)
 *(COMMON)
 COMMON         0x0000000000000008      0x802 echo.o
                0x0000000000000008                count
                0x000000000000000a                buf
 COMMON         0x000000000000080a        0x2 ../lib/libsys.a(call.o)
                0x000000000000080a                errno
 COMMON         0x000000000000080c       0x18 ../lib/libsys.a(message.o)
                0x000000000000080c                M
                0x0000000000000824                _endbss = .

/DISCARD/
 *(.comment)
                0x0000000000000001                ASSERT ((. <= 0xebf8), Error: data too large for a .sep file.)
LOAD ../lib/crtso.o
LOAD echo.o
LOAD ../lib/libsys.a
OUTPUT(echo.sep binary)
