Archive member included to satisfy reference by file (symbol)

../lib/libsys.a(chdir.o)      pwd.o (chdir)
../lib/libsys.a(close.o)      pwd.o (close)
../lib/libsys.a(read.o)       pwd.o (read)
../lib/libsys.a(stat.o)       pwd.o (stat)
../lib/libsys.a(exit.o)       ../lib/crtso.o (exit)
../lib/libsys.a(open.o)       pwd.o (open)
../lib/libsys.a(call.o)       ../lib/libsys.a(close.o) (callm1)
../lib/libsys.a(sendrec.o)    ../lib/libsys.a(call.o) (sendrec)
../lib/libsys.a(strcmp.o)     pwd.o (strcmp)
../lib/libsys.a(prints.o)     pwd.o (prints)
../lib/libsys.a(strcat.o)     pwd.o (strcat)
../lib/libsys.a(write.o)      ../lib/libsys.a(prints.o) (write)
../lib/libsys.a(message.o)    ../lib/libsys.a(call.o) (M)

Allocating common symbols
Common symbol       size              file

errno               0x2               ../lib/libsys.a(call.o)
Bufp                0x2               ../lib/libsys.a(prints.o)
Buf                 0x80              ../lib/libsys.a(prints.o)
M                   0x18              ../lib/libsys.a(message.o)

Discarded input sections

 .comment       0x0000000000000000       0x12 pwd.o
 .comment       0x0000000000000000       0x12 ../lib/libsys.a(chdir.o)
 .comment       0x0000000000000000       0x12 ../lib/libsys.a(close.o)
 .comment       0x0000000000000000       0x12 ../lib/libsys.a(read.o)
 .comment       0x0000000000000000       0x12 ../lib/libsys.a(stat.o)
 .comment       0x0000000000000000       0x12 ../lib/libsys.a(exit.o)
 .comment       0x0000000000000000       0x12 ../lib/libsys.a(open.o)
 .comment       0x0000000000000000       0x12 ../lib/libsys.a(call.o)
 .comment       0x0000000000000000       0x12 ../lib/libsys.a(strcmp.o)
 .comment       0x0000000000000000       0x12 ../lib/libsys.a(prints.o)
 .comment       0x0000000000000000       0x12 ../lib/libsys.a(strcat.o)
 .comment       0x0000000000000000       0x12 ../lib/libsys.a(write.o)
 .comment       0x0000000000000000       0x12 ../lib/libsys.a(message.o)

Memory Configuration

Name             Origin             Length             Attributes
*default*        0x0000000000000000 0xffffffffffffffff

Linker script and memory map


.hdr            0x0000000000000000       0x20
                0x0000000000000000        0x4 LONG 0x4100301
                0x0000000000000004        0x4 LONG 0x20
                0x0000000000000008        0x4 LONG 0x549 (_begdata - _begtext)
                0x000000000000000c        0x4 LONG 0x2b (_begbss - _begdata)
                0x0000000000000010        0x4 LONG 0x9c (_endbss - _begbss)
                0x0000000000000014        0x4 LONG 0x0 start
                0x0000000000000018        0x4 LONG 0x1a10 ((_endbss - _begtext) + 0x1400)
                0x000000000000001c        0x4 LONG 0x0
                0x0000000000000020                _begintext = ALIGN (0x20)

.text           0x0000000000000000      0x574 load address 0x0000000000000020
                0x0000000000000000                _begtext = .
 *(.text)
 .text          0x0000000000000000       0x1e ../lib/crtso.o
                0x0000000000000000                start
 .text          0x000000000000001e      0x1b9 pwd.o
                0x000000000000001e                last_index
                0x0000000000000041                main
 .text          0x00000000000001d7       0x1c ../lib/libsys.a(chdir.o)
                0x00000000000001d7                chdir
 .text          0x00000000000001f3       0x20 ../lib/libsys.a(close.o)
                0x00000000000001f3                close
 .text          0x0000000000000213       0x24 ../lib/libsys.a(read.o)
                0x0000000000000213                read
 .text          0x0000000000000237       0x29 ../lib/libsys.a(stat.o)
                0x0000000000000237                stat
 .text          0x0000000000000260       0x1d ../lib/libsys.a(exit.o)
                0x0000000000000260                exit
 .text          0x000000000000027d       0x1b ../lib/libsys.a(open.o)
                0x000000000000027d                open
 .text          0x0000000000000298       0xc8 ../lib/libsys.a(call.o)
                0x0000000000000298                callx
                0x00000000000002c7                callm1
                0x00000000000002fe                len
                0x0000000000000317                callm3
 .text          0x0000000000000360       0x1c ../lib/libsys.a(sendrec.o)
                0x0000000000000360                send
                0x0000000000000365                receive
                0x000000000000036a                send_rec
                0x000000000000036a                sendrec
 .text          0x000000000000037c       0x3b ../lib/libsys.a(strcmp.o)
                0x000000000000037c                strcmp
 .text          0x00000000000003b7      0x139 ../lib/libsys.a(prints.o)
                0x00000000000003d0                prints
 .text          0x00000000000004f0       0x35 ../lib/libsys.a(strcat.o)
                0x00000000000004f0                strcat
 .text          0x0000000000000525       0x24 ../lib/libsys.a(write.o)
                0x0000000000000525                write
 .text          0x0000000000000549        0x0 ../lib/libsys.a(message.o)
                0x0000000000000549                _begdata = .
 *(.data)
 .data          0x0000000000000549        0x4 ../lib/crtso.o
                0x0000000000000549                brksize
                0x000000000000054b                environ
 .data          0x000000000000054d        0x0 pwd.o
 .data          0x000000000000054d        0x0 ../lib/libsys.a(chdir.o)
 .data          0x000000000000054d        0x0 ../lib/libsys.a(close.o)
 .data          0x000000000000054d        0x0 ../lib/libsys.a(read.o)
 .data          0x000000000000054d        0x0 ../lib/libsys.a(stat.o)
 .data          0x000000000000054d        0x0 ../lib/libsys.a(exit.o)
 .data          0x000000000000054d        0x0 ../lib/libsys.a(open.o)
 .data          0x000000000000054d        0x0 ../lib/libsys.a(call.o)
 .data          0x000000000000054d        0x0 ../lib/libsys.a(sendrec.o)
 .data          0x000000000000054d        0x0 ../lib/libsys.a(strcmp.o)
 .data          0x000000000000054d        0x0 ../lib/libsys.a(prints.o)
 .data          0x000000000000054d        0x0 ../lib/libsys.a(strcat.o)
 .data          0x000000000000054d        0x0 ../lib/libsys.a(write.o)
 .data          0x000000000000054d        0x0 ../lib/libsys.a(message.o)
 *(.rodata*)
 .rodata.str1.1
                0x000000000000054d       0x27 pwd.o
                0x0000000000000574                _begbss = .

.bss            0x0000000000000574       0x9c load address 0x0000000000000594
 *(.bss)
 .bss           0x0000000000000574        0x0 ../lib/crtso.o
 .bss           0x0000000000000574        0x0 pwd.o
 .bss           0x0000000000000574        0x0 ../lib/libsys.a(chdir.o)
 .bss           0x0000000000000574        0x0 ../lib/libsys.a(close.o)
 .bss           0x0000000000000574        0x0 ../lib/libsys.a(read.o)
 .bss           0x0000000000000574        0x0 ../lib/libsys.a(stat.o)
 .bss           0x0000000000000574        0x0 ../lib/libsys.a(exit.o)
 .bss           0x0000000000000574        0x0 ../lib/libsys.a(open.o)
 .bss           0x0000000000000574        0x0 ../lib/libsys.a(call.o)
 .bss           0x0000000000000574        0x0 ../lib/libsys.a(sendrec.o)
 .bss           0x0000000000000574        0x0 ../lib/libsys.a(strcmp.o)
 .bss           0x0000000000000574        0x0 ../lib/libsys.a(prints.o)
 .bss           0x0000000000000574        0x0 ../lib/libsys.a(strcat.o)
 .bss           0x0000000000000574        0x0 ../lib/libsys.a(write.o)
 .bss           0x0000000000000574        0x0 ../lib/libsys.a(message.o)
 *(COMMON)
 COMMON         0x0000000000000574        0x2 ../lib/libsys.a(call.o)
                0x0000000000000574                errno
 COMMON         0x0000000000000576       0x82 ../lib/libsys.a(prints.o)
                0x0000000000000576                Bufp
                0x0000000000000578                Buf
 COMMON         0x00000000000005f8       0x18 ../lib/libsys.a(message.o)
                0x00000000000005f8                M
                0x0000000000000610                _endbss = .

/DISCARD/
 *(.comment)
                0x0000000000000001                ASSERT ((. <= 0xebf8), Error: too large for a .out file.)
LOAD ../lib/crtso.o
LOAD pwd.o
LOAD ../lib/libsys.a
OUTPUT(pwd.out binary)
